; Function Attrs: nounwind uwtable
define dso_local void @COVER_selectDict(ptr dead_on_unwind noalias writable writeonly sret(%struct.COVER_dictSelection) align 8 captures(none) %0, ptr noundef %1, i64 noundef %2, i64 noundef %3, ptr noundef %4, ptr noundef %5, i32 noundef %6, i64 noundef %7, i64 noundef %8, ptr noundef readonly byval(%struct.ZDICT_cover_params_t) align 8 captures(none) %9, ptr noundef readonly captures(none) %10, i64 %11) local_unnamed_addr #5 {
  %13 = getelementptr inbounds nuw i8, ptr %1, i64 %3
  %14 = tail call noalias ptr @malloc(i64 noundef %2) #26
  %15 = tail call noalias ptr @malloc(i64 noundef %2) #26
  %16 = getelementptr inbounds nuw i8, ptr %9, i64 28
  %17 = load i32, ptr %16, align 4, !tbaa !75
  %18 = uitofp i32 %17 to double
  %19 = fdiv double %18, 1.000000e+02
  %20 = fadd double %19, 1.000000e+00
  %21 = icmp ne ptr %14, null
  %22 = icmp ne ptr %15, null
  %or.cond = and i1 %21, %22
  br i1 %or.cond, label %25, label %23

23:                                               ; preds = %12
  tail call void @free(ptr noundef %14) #24
  tail call void @free(ptr noundef %15) #24
  %24 = getelementptr inbounds nuw i8, ptr %0, i64 16
  tail call void @llvm.memset.p0.i64(ptr noundef nonnull align 8 dereferenceable(16) %0, i8 0, i64 16, i1 false), !alias.scope !76
  store i64 %3, ptr %24, align 8, !tbaa !67, !alias.scope !79
  br label %69

25:                                               ; preds = %12
  tail call void @llvm.memcpy.p0.p0.i64(ptr nonnull align 1 %14, ptr align 1 %1, i64 %3, i1 false)
  %26 = getelementptr inbounds nuw i8, ptr %9, i64 32
  %27 = tail call i64 @ZDICT_finalizeDictionary(ptr noundef nonnull %14, i64 noundef %2, ptr noundef %1, i64 noundef %3, ptr noundef %4, ptr noundef %5, i32 noundef %6, ptr noundef nonnull byval(%struct.ZDICT_params_t) align 8 %26) #24
  %28 = tail call i32 @ZDICT_isError(i64 noundef %27) #24
  %.not = icmp eq i32 %28, 0
  br i1 %.not, label %31, label %29

29:                                               ; preds = %25
  tail call void @free(ptr noundef nonnull %14) #24
  tail call void @free(ptr noundef nonnull %15) #24
  %30 = getelementptr inbounds nuw i8, ptr %0, i64 16
  tail call void @llvm.memset.p0.i64(ptr noundef nonnull align 8 dereferenceable(16) %0, i8 0, i64 16, i1 false), !alias.scope !82
  store i64 %27, ptr %30, align 8, !tbaa !67, !alias.scope !85
  br label %69

31:                                               ; preds = %25
  %32 = tail call i64 @COVER_checkTotalCompressedSize(ptr noundef nonnull byval(%struct.ZDICT_cover_params_t) align 8 %9, ptr noundef %5, ptr noundef %4, ptr noundef %10, i64 noundef %7, i64 noundef %8, ptr noundef nonnull %14, i64 noundef %27)
  %33 = icmp ult i64 %32, -119
  br i1 %33, label %36, label %34

34:                                               ; preds = %31
  tail call void @free(ptr noundef nonnull %14) #24
  tail call void @free(ptr noundef nonnull %15) #24
  %35 = getelementptr inbounds nuw i8, ptr %0, i64 16
  tail call void @llvm.memset.p0.i64(ptr noundef nonnull align 8 dereferenceable(16) %0, i8 0, i64 16, i1 false), !alias.scope !88
  store i64 %32, ptr %35, align 8, !tbaa !67, !alias.scope !91
  br label %69

36:                                               ; preds = %31
  %37 = getelementptr inbounds nuw i8, ptr %9, i64 24
  %38 = load i32, ptr %37, align 8, !tbaa !94
  %39 = icmp eq i32 %38, 0
  br i1 %39, label %43, label %.preheader

.preheader:                                       ; preds = %36
  %40 = icmp ugt i64 %27, 256
  br i1 %40, label %.lr.ph, label %._crit_edge

.lr.ph:                                           ; preds = %.preheader
  %41 = uitofp i64 %32 to double
  %42 = fmul double %20, %41
  br label %46

43:                                               ; preds = %36
  tail call void @free(ptr noundef nonnull %15) #24
  store ptr %14, ptr %0, align 8, !tbaa !65, !alias.scope !95
  %44 = getelementptr inbounds nuw i8, ptr %0, i64 8
  store i64 %27, ptr %44, align 8, !tbaa !68, !alias.scope !95
  %45 = getelementptr inbounds nuw i8, ptr %0, i64 16
  store i64 %32, ptr %45, align 8, !tbaa !67, !alias.scope !95
  br label %69

46:                                               ; preds = %.lr.ph, %64
  %.092 = phi i64 [ 256, %.lr.ph ], [ %65, %64 ]
  tail call void @llvm.memcpy.p0.p0.i64(ptr nonnull align 1 %15, ptr nonnull align 1 %14, i64 %27, i1 false)
  %47 = sub i64 0, %.092
  %48 = getelementptr inbounds i8, ptr %13, i64 %47
  %49 = tail call i64 @ZDICT_finalizeDictionary(ptr noundef nonnull %15, i64 noundef %2, ptr noundef %48, i64 noundef %.092, ptr noundef %4, ptr noundef %5, i32 noundef %6, ptr noundef nonnull byval(%struct.ZDICT_params_t) align 8 %26) #24
  %50 = tail call i32 @ZDICT_isError(i64 noundef %49) #24
  %.not86 = icmp eq i32 %50, 0
  br i1 %.not86, label %53, label %51

51:                                               ; preds = %46
  tail call void @free(ptr noundef %14) #24
  tail call void @free(ptr noundef nonnull %15) #24
  %52 = getelementptr inbounds nuw i8, ptr %0, i64 16
  tail call void @llvm.memset.p0.i64(ptr noundef nonnull align 8 dereferenceable(16) %0, i8 0, i64 16, i1 false), !alias.scope !98
  store i64 %49, ptr %52, align 8, !tbaa !67, !alias.scope !101
  br label %69

53:                                               ; preds = %46
  %54 = tail call i64 @COVER_checkTotalCompressedSize(ptr noundef nonnull byval(%struct.ZDICT_cover_params_t) align 8 %9, ptr noundef %5, ptr noundef %4, ptr noundef %10, i64 noundef %7, i64 noundef %8, ptr noundef nonnull %15, i64 noundef %49)
  %55 = icmp ult i64 %54, -119
  br i1 %55, label %58, label %56

56:                                               ; preds = %53
  tail call void @free(ptr noundef %14) #24
  tail call void @free(ptr noundef nonnull %15) #24
  %57 = getelementptr inbounds nuw i8, ptr %0, i64 16
  tail call void @llvm.memset.p0.i64(ptr noundef nonnull align 8 dereferenceable(16) %0, i8 0, i64 16, i1 false), !alias.scope !104
  store i64 %54, ptr %57, align 8, !tbaa !67, !alias.scope !107
  br label %69

58:                                               ; preds = %53
  %59 = uitofp i64 %54 to double
  %60 = fcmp ult double %42, %59
  br i1 %60, label %64, label %61

61:                                               ; preds = %58
  tail call void @free(ptr noundef %14) #24
  store ptr %15, ptr %0, align 8, !tbaa !65, !alias.scope !110
  %62 = getelementptr inbounds nuw i8, ptr %0, i64 8
  store i64 %49, ptr %62, align 8, !tbaa !68, !alias.scope !110
  %63 = getelementptr inbounds nuw i8, ptr %0, i64 16
  store i64 %54, ptr %63, align 8, !tbaa !67, !alias.scope !110
  br label %69

64:                                               ; preds = %58
  %65 = shl i64 %49, 1
  %66 = icmp ult i64 %65, %27
  br i1 %66, label %46, label %._crit_edge, !llvm.loop !113

._crit_edge:                                      ; preds = %64, %.preheader
  tail call void @free(ptr noundef nonnull %15) #24
  store ptr %14, ptr %0, align 8, !tbaa !65, !alias.scope !114
  %67 = getelementptr inbounds nuw i8, ptr %0, i64 8
  store i64 %27, ptr %67, align 8, !tbaa !68, !alias.scope !114
  %68 = getelementptr inbounds nuw i8, ptr %0, i64 16
  store i64 %32, ptr %68, align 8, !tbaa !67, !alias.scope !114
  br label %69

69:                                               ; preds = %._crit_edge, %61, %56, %51, %43, %34, %29, %23
  ret void
}